target datalayout = "e-m:e-p270:32:32-p271:32:32-p272:64:64-i64:64-i128:128-f80:128-n8:16:32:64-S128"
target triple = "x86_64-pc-linux-gnu"

%struct._packet_info = type { ptr, ptr, i32, i32, %struct.nstime_t, %struct.nstime_t, %struct.nstime_t, i8, ptr, ptr, ptr, ptr, %struct._address, %struct._address, %struct._address, %struct._address, %struct._address, %struct._address, i32, ptr, i8, [3 x i8], %struct.anon, i32, i32, i32, i32, ptr, i8, ptr, ptr, i16, i16, i32, i32, i16, i32, i32, ptr, ptr, ptr, i8, i8, i16, i16, i16, i32, i16, i16, ptr, ptr, ptr, ptr, ptr, i32, i32 }
%struct.nstime_t = type { i64, i32 }
%struct._address = type { i32, i32, ptr, ptr }
%struct.anon = type { i8, [3 x i8] }
%struct._asn1_ctx_t = type { i32, i32, i8, ptr, ptr, ptr, ptr, ptr, %struct.anon.0, %struct.anon.3, %struct.anon.4, ptr }
%struct.anon.0 = type { i32, i8, i8, i8, ptr, ptr, i32, i32, ptr, ptr, ptr, %union.anon }
%union.anon = type { %struct.anon.1 }
%struct.anon.1 = type { ptr }
%struct.anon.3 = type { ptr, ptr, ptr }
%struct.anon.4 = type { i32, i8, ptr, i32, i32, ptr, ptr, ptr, %union.anon.5 }
%union.anon.5 = type { %struct.anon.6 }
%struct.anon.6 = type { ptr }
%struct.s1ap_private_data = type { ptr, i32, i32, i32, i32, i32, i8, ptr, ptr, ptr, i16, i8, i8, i32 }
%struct.s1ap_conv_info = type { ptr, ptr }
%struct.s1ap_tai = type { i32, i16 }
%struct._wmem_tree_key_t = type { i32, ptr }
%struct._frame_data = type <{ i32, i32, i32, i32, i32, [4 x i8], i64, ptr, ptr, ptr, i8, i16, [5 x i8], %struct.nstime_t, %struct.nstime_t, i32, i32 }>

@proto_s1ap = internal global i32 0, align 4
@ett_s1ap_TAI = internal global i32 0, align 4

; Function Attrs: null_pointer_is_valid sspstrong uwtable
define internal ptr @s1ap_get_private_data(ptr noundef %0) #0 {
  %2 = alloca ptr, align 8
  %3 = alloca ptr, align 8
  store ptr %0, ptr %2, align 8
  call void @llvm.lifetime.start.p0(i64 8, ptr %3) #8
  %4 = load ptr, ptr %2, align 8
  %5 = getelementptr inbounds nuw %struct._packet_info, ptr %4, i32 0, i32 51
  %6 = load ptr, ptr %5, align 8
  %7 = load ptr, ptr %2, align 8
  %8 = load i32, ptr @proto_s1ap, align 4
  %9 = call ptr @p_get_proto_data(ptr noundef %6, ptr noundef %7, i32 noundef %8, i32 noundef 0)
  store ptr %9, ptr %3, align 8
  %10 = load ptr, ptr %3, align 8
  %11 = icmp ne ptr %10, null
  br i1 %11, label %23, label %12

12:                                               ; preds = %1
  %13 = load ptr, ptr %2, align 8
  %14 = getelementptr inbounds nuw %struct._packet_info, ptr %13, i32 0, i32 51
  %15 = load ptr, ptr %14, align 8
  %16 = call noalias ptr @wmem_alloc0(ptr noundef %15, i64 noundef 64) #11
  store ptr %16, ptr %3, align 8
  %17 = load ptr, ptr %2, align 8
  %18 = getelementptr inbounds nuw %struct._packet_info, ptr %17, i32 0, i32 51
  %19 = load ptr, ptr %18, align 8
  %20 = load ptr, ptr %2, align 8
  %21 = load i32, ptr @proto_s1ap, align 4
  %22 = load ptr, ptr %3, align 8
  call void @p_add_proto_data(ptr noundef %19, ptr noundef %20, i32 noundef %21, i32 noundef 0, ptr noundef %22)
  br label %23

23:                                               ; preds = %12, %1
  %24 = load ptr, ptr %3, align 8
  call void @llvm.lifetime.end.p0(i64 8, ptr %3) #8
  ret ptr %24
}

; Function Attrs: null_pointer_is_valid sspstrong uwtable
define internal i32 @dissect_s1ap_TAI(ptr noundef %0, i32 noundef %1, ptr noundef %2, ptr noundef %3, i32 noundef %4) #0 {
  %6 = alloca ptr, align 8
  %7 = alloca i32, align 4
  %8 = alloca ptr, align 8
  %9 = alloca ptr, align 8
  %10 = alloca i32, align 4
  %11 = alloca ptr, align 8
  %12 = alloca i64, align 8
  %13 = alloca [3 x %struct._wmem_tree_key_t], align 16
  %14 = alloca ptr, align 8
  store ptr %0, ptr %6, align 8
  store i32 %1, ptr %7, align 4
  store ptr %2, ptr %8, align 8
  store ptr %3, ptr %9, align 8
  store i32 %4, ptr %10, align 4
  call void @llvm.lifetime.start.p0(i64 8, ptr %11) #8
  %15 = load ptr, ptr %8, align 8
  %16 = getelementptr inbounds nuw %struct._asn1_ctx_t, ptr %15, i32 0, i32 3
  %17 = load ptr, ptr %16, align 8
  %18 = call ptr @s1ap_get_private_data(ptr noundef %17)
  store ptr %18, ptr %11, align 8
  %19 = load ptr, ptr %11, align 8
  %20 = getelementptr inbounds nuw %struct.s1ap_private_data, ptr %19, i32 0, i32 13
  store i32 6, ptr %20, align 4
  %21 = load ptr, ptr %8, align 8
  %22 = getelementptr inbounds nuw %struct._asn1_ctx_t, ptr %21, i32 0, i32 3
  %23 = load ptr, ptr %22, align 8
  %24 = getelementptr inbounds nuw %struct._packet_info, ptr %23, i32 0, i32 51
  %25 = load ptr, ptr %24, align 8
  %26 = call noalias ptr @wmem_alloc0(ptr noundef %25, i64 noundef 8) #11
  %27 = load ptr, ptr %11, align 8
  %28 = getelementptr inbounds nuw %struct.s1ap_private_data, ptr %27, i32 0, i32 9
  store ptr %26, ptr %28, align 8
  %29 = load ptr, ptr %6, align 8
  %30 = load i32, ptr %7, align 4
  %31 = load ptr, ptr %8, align 8
  %32 = load ptr, ptr %9, align 8
  %33 = load i32, ptr %10, align 4
  %34 = load i32, ptr @ett_s1ap_TAI, align 4
  %35 = call i32 @dissect_per_sequence(ptr noundef %29, i32 noundef %30, ptr noundef %31, ptr noundef %32, i32 noundef %33, i32 noundef %34, ptr noundef @TAI_sequence)
  store i32 %35, ptr %7, align 4
  %36 = load ptr, ptr %8, align 8
  %37 = getelementptr inbounds nuw %struct._asn1_ctx_t, ptr %36, i32 0, i32 3
  %38 = load ptr, ptr %37, align 8
  %39 = getelementptr inbounds nuw %struct._packet_info, ptr %38, i32 0, i32 8
  %40 = load ptr, ptr %39, align 8
  %41 = getelementptr inbounds nuw %struct._frame_data, ptr %40, i32 0, i32 11
  %42 = load i16, ptr %41, align 1
  %43 = lshr i16 %42, 3
  %44 = and i16 %43, 1
  %45 = zext i16 %44 to i32
  %46 = icmp ne i32 %45, 0
  br i1 %46, label %117, label %47

47:                                               ; preds = %5
  %48 = load ptr, ptr %11, align 8
  %49 = getelementptr inbounds nuw %struct.s1ap_private_data, ptr %48, i32 0, i32 0
  %50 = load ptr, ptr %49, align 8
  %51 = icmp ne ptr %50, null
  br i1 %51, label %52, label %117

52:                                               ; preds = %47
  %53 = load ptr, ptr %11, align 8
  %54 = getelementptr inbounds nuw %struct.s1ap_private_data, ptr %53, i32 0, i32 5
  %55 = load i32, ptr %54, align 8
  %56 = icmp eq i32 %55, 0
  br i1 %56, label %57, label %117

57:                                               ; preds = %52
  %58 = load ptr, ptr %11, align 8
  %59 = getelementptr inbounds nuw %struct.s1ap_private_data, ptr %58, i32 0, i32 1
  %60 = load i32, ptr %59, align 8
  %61 = icmp eq i32 %60, 12
  br i1 %61, label %62, label %117

62:                                               ; preds = %57
  call void @llvm.lifetime.start.p0(i64 8, ptr %12) #8
  %63 = load ptr, ptr %11, align 8
  %64 = getelementptr inbounds nuw %struct.s1ap_private_data, ptr %63, i32 0, i32 9
  %65 = load ptr, ptr %64, align 8
  %66 = getelementptr inbounds nuw %struct.s1ap_tai, ptr %65, i32 0, i32 0
  %67 = load i32, ptr %66, align 4
  %68 = shl i32 %67, 16
  %69 = load ptr, ptr %11, align 8
  %70 = getelementptr inbounds nuw %struct.s1ap_private_data, ptr %69, i32 0, i32 9
  %71 = load ptr, ptr %70, align 8
  %72 = getelementptr inbounds nuw %struct.s1ap_tai, ptr %71, i32 0, i32 1
  %73 = load i16, ptr %72, align 4
  %74 = zext i16 %73 to i32
  %75 = or i32 %68, %74
  %76 = zext i32 %75 to i64
  store i64 %76, ptr %12, align 8
  %77 = load ptr, ptr %11, align 8
  %78 = getelementptr inbounds nuw %struct.s1ap_private_data, ptr %77, i32 0, i32 0
  %79 = load ptr, ptr %78, align 8
  %80 = getelementptr inbounds nuw %struct.s1ap_conv_info, ptr %79, i32 0, i32 0
  %81 = load ptr, ptr %80, align 8
  %82 = call ptr @wmem_map_lookup(ptr noundef %81, ptr noundef %12)
  %83 = icmp ne ptr %82, null
  br i1 %83, label %84, label %116

84:                                               ; preds = %62
  call void @llvm.lifetime.start.p0(i64 48, ptr %13) #8
  call void @llvm.lifetime.start.p0(i64 8, ptr %14) #8
  %85 = call ptr @wmem_file_scope()
  %86 = call noalias ptr @wmem_alloc(ptr noundef %85, i64 noundef 4) #11
  store ptr %86, ptr %14, align 8
  %87 = load ptr, ptr %11, align 8
  %88 = getelementptr inbounds nuw %struct.s1ap_private_data, ptr %87, i32 0, i32 10
  %89 = load i16, ptr %88, align 8
  %90 = zext i16 %89 to i32
  %91 = load ptr, ptr %14, align 8
  store i32 %90, ptr %91, align 4
  %92 = getelementptr [3 x %struct._wmem_tree_key_t], ptr %13, i64 0, i64 0
  %93 = getelementptr inbounds nuw %struct._wmem_tree_key_t, ptr %92, i32 0, i32 0
  store i32 1, ptr %93, align 16
  %94 = load ptr, ptr %14, align 8
  %95 = getelementptr [3 x %struct._wmem_tree_key_t], ptr %13, i64 0, i64 0
  %96 = getelementptr inbounds nuw %struct._wmem_tree_key_t, ptr %95, i32 0, i32 1
  store ptr %94, ptr %96, align 8
  %97 = getelementptr [3 x %struct._wmem_tree_key_t], ptr %13, i64 0, i64 1
  %98 = getelementptr inbounds nuw %struct._wmem_tree_key_t, ptr %97, i32 0, i32 0
  store i32 1, ptr %98, align 16
  %99 = load ptr, ptr %8, align 8
  %100 = getelementptr inbounds nuw %struct._asn1_ctx_t, ptr %99, i32 0, i32 3
  %101 = load ptr, ptr %100, align 8
  %102 = getelementptr inbounds nuw %struct._packet_info, ptr %101, i32 0, i32 3
  %103 = getelementptr [3 x %struct._wmem_tree_key_t], ptr %13, i64 0, i64 1
  %104 = getelementptr inbounds nuw %struct._wmem_tree_key_t, ptr %103, i32 0, i32 1
  store ptr %102, ptr %104, align 8
  %105 = getelementptr [3 x %struct._wmem_tree_key_t], ptr %13, i64 0, i64 2
  %106 = getelementptr inbounds nuw %struct._wmem_tree_key_t, ptr %105, i32 0, i32 0
  store i32 0, ptr %106, align 16
  %107 = getelementptr [3 x %struct._wmem_tree_key_t], ptr %13, i64 0, i64 2
  %108 = getelementptr inbounds nuw %struct._wmem_tree_key_t, ptr %107, i32 0, i32 1
  store ptr null, ptr %108, align 8
  %109 = load ptr, ptr %11, align 8
  %110 = getelementptr inbounds nuw %struct.s1ap_private_data, ptr %109, i32 0, i32 0
  %111 = load ptr, ptr %110, align 8
  %112 = getelementptr inbounds nuw %struct.s1ap_conv_info, ptr %111, i32 0, i32 1
  %113 = load ptr, ptr %112, align 8
  %114 = getelementptr inbounds [3 x %struct._wmem_tree_key_t], ptr %13, i64 0, i64 0
  %115 = load ptr, ptr %14, align 8
  call void @wmem_tree_insert32_array(ptr noundef %113, ptr noundef %114, ptr noundef %115)
  call void @llvm.lifetime.end.p0(i64 8, ptr %14) #8
  call void @llvm.lifetime.end.p0(i64 48, ptr %13) #8
  br label %116

116:                                              ; preds = %84, %62
  call void @llvm.lifetime.end.p0(i64 8, ptr %12) #8
  br label %117

117:                                              ; preds = %116, %57, %52, %47, %5
  %118 = load i32, ptr %7, align 4
  call void @llvm.lifetime.end.p0(i64 8, ptr %11) #8
  ret i32 %118
}