; Function Attrs: null_pointer_is_valid sspstrong uwtable
define internal i32 @dissect_s1ap_TAI(ptr noundef %0, i32 noundef %1, ptr noundef %2, ptr noundef %3, i32 noundef %4) #0 {
  %6 = alloca i64, align 8
  %7 = alloca [3 x %struct._wmem_tree_key_t], align 16
  %8 = getelementptr inbounds nuw i8, ptr %2, i64 16
  %9 = load ptr, ptr %8, align 8
  %10 = getelementptr inbounds nuw i8, ptr %9, i64 408
  %11 = load ptr, ptr %10, align 8
  %12 = load i32, ptr @proto_s1ap, align 4
  %13 = tail call ptr @p_get_proto_data(ptr noundef %11, ptr noundef %9, i32 noundef %12, i32 noundef 0)
  %.not.i = icmp eq ptr %13, null
  br i1 %.not.i, label %14, label %s1ap_get_private_data.exit

14:                                               ; preds = %5
  %15 = load ptr, ptr %10, align 8
  %16 = tail call noalias dereferenceable_or_null(64) ptr @wmem_alloc0(ptr noundef %15, i64 noundef 64) #9
  %17 = load ptr, ptr %10, align 8
  %18 = load i32, ptr @proto_s1ap, align 4
  tail call void @p_add_proto_data(ptr noundef %17, ptr noundef %9, i32 noundef %18, i32 noundef 0, ptr noundef %16)
  br label %s1ap_get_private_data.exit

s1ap_get_private_data.exit:                       ; preds = %5, %14
  %.0.i = phi ptr [ %13, %5 ], [ %16, %14 ]
  %19 = getelementptr inbounds nuw i8, ptr %.0.i, i64 60
  store i32 6, ptr %19, align 4
  %20 = load ptr, ptr %8, align 8
  %21 = getelementptr inbounds nuw i8, ptr %20, i64 408
  %22 = load ptr, ptr %21, align 8
  %23 = tail call noalias dereferenceable_or_null(8) ptr @wmem_alloc0(ptr noundef %22, i64 noundef 8) #9
  %24 = getelementptr inbounds nuw i8, ptr %.0.i, i64 48
  store ptr %23, ptr %24, align 8
  %25 = load i32, ptr @ett_s1ap_TAI, align 4
  %26 = tail call i32 @dissect_per_sequence(ptr noundef %0, i32 noundef %1, ptr noundef %2, ptr noundef %3, i32 noundef %4, i32 noundef %25, ptr noundef nonnull @TAI_sequence)
  %27 = load ptr, ptr %8, align 8
  %28 = getelementptr inbounds nuw i8, ptr %27, i64 80
  %29 = load ptr, ptr %28, align 8
  %30 = getelementptr inbounds nuw i8, ptr %29, i64 57
  %31 = load i16, ptr %30, align 1
  %32 = and i16 %31, 8
  %.not = icmp eq i16 %32, 0
  br i1 %.not, label %33, label %71

33:                                               ; preds = %s1ap_get_private_data.exit
  %34 = load ptr, ptr %.0.i, align 8
  %.not22 = icmp eq ptr %34, null
  br i1 %.not22, label %71, label %35

35:                                               ; preds = %33
  %36 = getelementptr inbounds nuw i8, ptr %.0.i, i64 24
  %37 = load i32, ptr %36, align 8
  %38 = icmp eq i32 %37, 0
  br i1 %38, label %39, label %71

39:                                               ; preds = %35
  %40 = getelementptr inbounds nuw i8, ptr %.0.i, i64 8
  %41 = load i32, ptr %40, align 8
  %42 = icmp eq i32 %41, 12
  br i1 %42, label %43, label %71

43:                                               ; preds = %39
  call void @llvm.lifetime.start.p0(i64 8, ptr nonnull %6) #8
  %44 = load ptr, ptr %24, align 8
  %45 = load i32, ptr %44, align 4
  %46 = shl i32 %45, 16
  %47 = getelementptr inbounds nuw i8, ptr %44, i64 4
  %48 = load i16, ptr %47, align 4
  %49 = zext i16 %48 to i32
  %50 = or disjoint i32 %46, %49
  %51 = zext i32 %50 to i64
  store i64 %51, ptr %6, align 8
  %52 = load ptr, ptr %34, align 8
  %53 = call ptr @wmem_map_lookup(ptr noundef %52, ptr noundef nonnull %6)
  %.not23 = icmp eq ptr %53, null
  br i1 %.not23, label %70, label %54

54:                                               ; preds = %43
  call void @llvm.lifetime.start.p0(i64 48, ptr nonnull %7) #8
  %55 = call ptr @wmem_file_scope()
  %56 = call noalias dereferenceable_or_null(4) ptr @wmem_alloc(ptr noundef %55, i64 noundef 4) #9
  %57 = getelementptr inbounds nuw i8, ptr %.0.i, i64 56
  %58 = load i16, ptr %57, align 8
  %59 = zext i16 %58 to i32
  store i32 %59, ptr %56, align 4
  store i32 1, ptr %7, align 16
  %60 = getelementptr inbounds nuw i8, ptr %7, i64 8
  store ptr %56, ptr %60, align 8
  %61 = getelementptr inbounds nuw i8, ptr %7, i64 16
  store i32 1, ptr %61, align 16
  %62 = load ptr, ptr %8, align 8
  %63 = getelementptr inbounds nuw i8, ptr %62, i64 20
  %64 = getelementptr inbounds nuw i8, ptr %7, i64 24
  store ptr %63, ptr %64, align 8
  %65 = getelementptr inbounds nuw i8, ptr %7, i64 32
  store i32 0, ptr %65, align 16
  %66 = getelementptr inbounds nuw i8, ptr %7, i64 40
  store ptr null, ptr %66, align 8
  %67 = load ptr, ptr %.0.i, align 8
  %68 = getelementptr inbounds nuw i8, ptr %67, i64 8
  %69 = load ptr, ptr %68, align 8
  call void @wmem_tree_insert32_array(ptr noundef %69, ptr noundef nonnull %7, ptr noundef %56)
  call void @llvm.lifetime.end.p0(i64 48, ptr nonnull %7) #8
  br label %70

70:                                               ; preds = %54, %43
  call void @llvm.lifetime.end.p0(i64 8, ptr nonnull %6) #8
  br label %71

71:                                               ; preds = %70, %39, %35, %33, %s1ap_get_private_data.exit
  ret i32 %26
}